target datalayout = "e-m:e-p270:32:32-p271:32:32-p272:64:64-i64:64-i128:128-f80:128-n8:16:32:64-S128"
target triple = "x86_64-pc-linux-gnu"

%struct._priv_exr_context_t = type { i8, i8, i8, i8, i8, i8, i8, i8, %struct.exr_attr_string_t, %struct.exr_attr_string_t, ptr, ptr, ptr, ptr, ptr, ptr, ptr, ptr, i32, i32, i32, i32, i32, float, ptr, ptr, ptr, i64, ptr, ptr, i64, i32, i32, i32, i32, %struct._priv_exr_part_t, ptr, ptr, %struct.exr_attribute_list, %union.pthread_mutex_t, i8, i8, [2 x i8], i32 }
%struct.exr_attr_string_t = type { i32, i32, ptr }
%struct._priv_exr_part_t = type { i32, i32, %struct.exr_attribute_list, ptr, ptr, ptr, ptr, ptr, ptr, ptr, ptr, ptr, ptr, ptr, ptr, ptr, ptr, %struct.exr_attr_box2i_t, %struct.exr_attr_box2i_t, i32, i32, i32, float, i32, i32, ptr, ptr, ptr, ptr, i64, i16, i16, i32, i64, i64 }
%struct.exr_attr_box2i_t = type { %struct.exr_attr_v2i_t, %struct.exr_attr_v2i_t }
%struct.exr_attr_v2i_t = type { i32, i32 }
%struct.exr_attribute_list = type { i32, i32, ptr, ptr }
%union.pthread_mutex_t = type { %struct.__pthread_mutex_s }
%struct.__pthread_mutex_s = type { i32, i32, i32, i32, i32, i16, i16, %struct.__pthread_internal_list }
%struct.__pthread_internal_list = type { ptr, ptr }
%struct.exr_chunk_info_t = type { i32, i32, i32, i32, i32, i8, i8, i8, i8, i64, i64, i64, i64, i64 }
%struct._exr_encode_pipeline = type { i64, ptr, i16, i16, i32, ptr, %struct.exr_chunk_info_t, ptr, ptr, i64, i64, ptr, i64, ptr, i64, i64, ptr, i64, i64, ptr, i64, ptr, i64, ptr, ptr, ptr, ptr, ptr, ptr, [5 x %struct.exr_coding_channel_info_t] }
%struct.exr_coding_channel_info_t = type { ptr, i32, i32, i32, i32, i8, i8, i16, i16, i16, i32, i32, %union.anon.0 }
%union.anon.0 = type { ptr }

@.str.36 = private unnamed_addr constant [63 x i8] c"Chunk index for scanline %d in chunk %d outside chunk count %d\00", align 1
@.str.37 = private unnamed_addr constant [55 x i8] c"Attempt to write chunk %d, but last output chunk is %d\00", align 1

; Function Attrs: nounwind uwtable
define hidden i32 @internal_validate_next_chunk(ptr noundef %0, ptr noundef %1, ptr noundef %2) #0 {
  %4 = alloca i32, align 4
  %5 = alloca ptr, align 8
  %6 = alloca ptr, align 8
  %7 = alloca ptr, align 8
  %8 = alloca i32, align 4
  %9 = alloca i32, align 4
  %10 = alloca i32, align 4
  %11 = alloca i32, align 4
  store ptr %0, ptr %5, align 8, !tbaa !120
  store ptr %1, ptr %6, align 8, !tbaa !3
  store ptr %2, ptr %7, align 8, !tbaa !30
  call void @llvm.lifetime.start.p0(i64 4, ptr %8) #7
  store i32 0, ptr %8, align 4, !tbaa !8
  call void @llvm.lifetime.start.p0(i64 4, ptr %9) #7
  call void @llvm.lifetime.start.p0(i64 4, ptr %10) #7
  %12 = load ptr, ptr %6, align 8, !tbaa !3
  %13 = getelementptr inbounds nuw %struct._priv_exr_context_t, ptr %12, i32 0, i32 31
  %14 = load i32, ptr %13, align 8, !tbaa !115
  %15 = load ptr, ptr %5, align 8, !tbaa !120
  %16 = getelementptr inbounds nuw %struct._exr_encode_pipeline, ptr %15, i32 0, i32 4
  %17 = load i32, ptr %16, align 4, !tbaa !122
  %18 = icmp ne i32 %14, %17
  br i1 %18, label %19, label %25

19:                                               ; preds = %3
  %20 = load ptr, ptr %6, align 8, !tbaa !3
  %21 = getelementptr inbounds nuw %struct._priv_exr_context_t, ptr %20, i32 0, i32 12
  %22 = load ptr, ptr %21, align 8, !tbaa !31
  %23 = load ptr, ptr %6, align 8, !tbaa !3
  %24 = call i32 %22(ptr noundef %23, i32 noundef 25)
  store i32 %24, ptr %4, align 4
  store i32 1, ptr %11, align 4
  br label %131

25:                                               ; preds = %3
  store i32 -1, ptr %9, align 4, !tbaa !8
  %26 = load ptr, ptr %7, align 8, !tbaa !30
  %27 = getelementptr inbounds nuw %struct._priv_exr_part_t, ptr %26, i32 0, i32 1
  %28 = load i32, ptr %27, align 4, !tbaa !58
  %29 = icmp eq i32 %28, 1
  br i1 %29, label %35, label %30

30:                                               ; preds = %25
  %31 = load ptr, ptr %7, align 8, !tbaa !30
  %32 = getelementptr inbounds nuw %struct._priv_exr_part_t, ptr %31, i32 0, i32 1
  %33 = load i32, ptr %32, align 4, !tbaa !58
  %34 = icmp eq i32 %33, 3
  br i1 %34, label %35, label %57

35:                                               ; preds = %30, %25
  %36 = load ptr, ptr %6, align 8, !tbaa !3
  %37 = load ptr, ptr %7, align 8, !tbaa !30
  %38 = load ptr, ptr %5, align 8, !tbaa !120
  %39 = getelementptr inbounds nuw %struct._exr_encode_pipeline, ptr %38, i32 0, i32 6
  %40 = getelementptr inbounds nuw %struct.exr_chunk_info_t, ptr %39, i32 0, i32 1
  %41 = load i32, ptr %40, align 4, !tbaa !124
  %42 = load ptr, ptr %5, align 8, !tbaa !120
  %43 = getelementptr inbounds nuw %struct._exr_encode_pipeline, ptr %42, i32 0, i32 6
  %44 = getelementptr inbounds nuw %struct.exr_chunk_info_t, ptr %43, i32 0, i32 2
  %45 = load i32, ptr %44, align 8, !tbaa !125
  %46 = load ptr, ptr %5, align 8, !tbaa !120
  %47 = getelementptr inbounds nuw %struct._exr_encode_pipeline, ptr %46, i32 0, i32 6
  %48 = getelementptr inbounds nuw %struct.exr_chunk_info_t, ptr %47, i32 0, i32 5
  %49 = load i8, ptr %48, align 4, !tbaa !126
  %50 = zext i8 %49 to i32
  %51 = load ptr, ptr %5, align 8, !tbaa !120
  %52 = getelementptr inbounds nuw %struct._exr_encode_pipeline, ptr %51, i32 0, i32 6
  %53 = getelementptr inbounds nuw %struct.exr_chunk_info_t, ptr %52, i32 0, i32 6
  %54 = load i8, ptr %53, align 1, !tbaa !127
  %55 = zext i8 %54 to i32
  %56 = call i32 @validate_and_compute_tile_chunk_off(ptr noundef %36, ptr noundef %37, i32 noundef %41, i32 noundef %45, i32 noundef %50, i32 noundef %55, ptr noundef %9)
  store i32 %56, ptr %8, align 4, !tbaa !8
  br label %79

57:                                               ; preds = %30
  %58 = load ptr, ptr %7, align 8, !tbaa !30
  %59 = getelementptr inbounds nuw %struct._priv_exr_part_t, ptr %58, i32 0, i32 30
  %60 = load i16, ptr %59, align 8, !tbaa !60
  %61 = sext i16 %60 to i32
  store i32 %61, ptr %10, align 4, !tbaa !8
  %62 = load ptr, ptr %5, align 8, !tbaa !120
  %63 = getelementptr inbounds nuw %struct._exr_encode_pipeline, ptr %62, i32 0, i32 6
  %64 = getelementptr inbounds nuw %struct.exr_chunk_info_t, ptr %63, i32 0, i32 2
  %65 = load i32, ptr %64, align 8, !tbaa !125
  %66 = load ptr, ptr %7, align 8, !tbaa !30
  %67 = getelementptr inbounds nuw %struct._priv_exr_part_t, ptr %66, i32 0, i32 17
  %68 = getelementptr inbounds nuw %struct.exr_attr_box2i_t, ptr %67, i32 0, i32 0
  %69 = getelementptr inbounds nuw %struct.exr_attr_v2i_t, ptr %68, i32 0, i32 1
  %70 = load i32, ptr %69, align 4, !tbaa !112
  %71 = sub nsw i32 %65, %70
  store i32 %71, ptr %9, align 4, !tbaa !8
  %72 = load i32, ptr %10, align 4, !tbaa !8
  %73 = icmp sgt i32 %72, 1
  br i1 %73, label %74, label %78

74:                                               ; preds = %57
  %75 = load i32, ptr %10, align 4, !tbaa !8
  %76 = load i32, ptr %9, align 4, !tbaa !8
  %77 = sdiv i32 %76, %75
  store i32 %77, ptr %9, align 4, !tbaa !8
  br label %78

78:                                               ; preds = %74, %57
  br label %79

79:                                               ; preds = %78, %35
  %80 = load i32, ptr %8, align 4, !tbaa !8
  %81 = icmp eq i32 %80, 0
  br i1 %81, label %82, label %129

82:                                               ; preds = %79
  %83 = load i32, ptr %9, align 4, !tbaa !8
  %84 = icmp slt i32 %83, 0
  br i1 %84, label %91, label %85

85:                                               ; preds = %82
  %86 = load i32, ptr %9, align 4, !tbaa !8
  %87 = load ptr, ptr %7, align 8, !tbaa !30
  %88 = getelementptr inbounds nuw %struct._priv_exr_part_t, ptr %87, i32 0, i32 32
  %89 = load i32, ptr %88, align 4, !tbaa !36
  %90 = icmp sge i32 %86, %89
  br i1 %90, label %91, label %105

91:                                               ; preds = %85, %82
  %92 = load ptr, ptr %6, align 8, !tbaa !3
  %93 = getelementptr inbounds nuw %struct._priv_exr_context_t, ptr %92, i32 0, i32 14
  %94 = load ptr, ptr %93, align 8, !tbaa !28
  %95 = load ptr, ptr %6, align 8, !tbaa !3
  %96 = load ptr, ptr %5, align 8, !tbaa !120
  %97 = getelementptr inbounds nuw %struct._exr_encode_pipeline, ptr %96, i32 0, i32 6
  %98 = getelementptr inbounds nuw %struct.exr_chunk_info_t, ptr %97, i32 0, i32 2
  %99 = load i32, ptr %98, align 8, !tbaa !125
  %100 = load i32, ptr %9, align 4, !tbaa !8
  %101 = load ptr, ptr %7, align 8, !tbaa !30
  %102 = getelementptr inbounds nuw %struct._priv_exr_part_t, ptr %101, i32 0, i32 32
  %103 = load i32, ptr %102, align 4, !tbaa !36
  %104 = call i32 (ptr, i32, ptr, ...) %94(ptr noundef %95, i32 noundef 3, ptr noundef @.str.36, i32 noundef %99, i32 noundef %100, i32 noundef %103)
  store i32 %104, ptr %8, align 4, !tbaa !8
  br label %128

105:                                              ; preds = %85
  %106 = load ptr, ptr %7, align 8, !tbaa !30
  %107 = getelementptr inbounds nuw %struct._priv_exr_part_t, ptr %106, i32 0, i32 20
  %108 = load i32, ptr %107, align 4, !tbaa !52
  %109 = icmp ne i32 %108, 2
  br i1 %109, label %110, label %127

110:                                              ; preds = %105
  %111 = load ptr, ptr %6, align 8, !tbaa !3
  %112 = getelementptr inbounds nuw %struct._priv_exr_context_t, ptr %111, i32 0, i32 32
  %113 = load i32, ptr %112, align 4, !tbaa !116
  %114 = load i32, ptr %9, align 4, !tbaa !8
  %115 = sub nsw i32 %114, 1
  %116 = icmp ne i32 %113, %115
  br i1 %116, label %117, label %127

117:                                              ; preds = %110
  %118 = load ptr, ptr %6, align 8, !tbaa !3
  %119 = getelementptr inbounds nuw %struct._priv_exr_context_t, ptr %118, i32 0, i32 14
  %120 = load ptr, ptr %119, align 8, !tbaa !28
  %121 = load ptr, ptr %6, align 8, !tbaa !3
  %122 = load i32, ptr %9, align 4, !tbaa !8
  %123 = load ptr, ptr %6, align 8, !tbaa !3
  %124 = getelementptr inbounds nuw %struct._priv_exr_context_t, ptr %123, i32 0, i32 32
  %125 = load i32, ptr %124, align 4, !tbaa !116
  %126 = call i32 (ptr, i32, ptr, ...) %120(ptr noundef %121, i32 noundef 26, ptr noundef @.str.37, i32 noundef %122, i32 noundef %125)
  store i32 %126, ptr %8, align 4, !tbaa !8
  br label %127

127:                                              ; preds = %117, %110, %105
  br label %128

128:                                              ; preds = %127, %91
  br label %129

129:                                              ; preds = %128, %79
  %130 = load i32, ptr %8, align 4, !tbaa !8
  store i32 %130, ptr %4, align 4
  store i32 1, ptr %11, align 4
  br label %131

131:                                              ; preds = %129, %19
  call void @llvm.lifetime.end.p0(i64 4, ptr %10) #7
  call void @llvm.lifetime.end.p0(i64 4, ptr %9) #7
  call void @llvm.lifetime.end.p0(i64 4, ptr %8) #7
  %132 = load i32, ptr %4, align 4
  ret i32 %132
}