; Function Attrs: nounwind uwtable
define hidden i32 @internal_validate_next_chunk(ptr noundef readonly captures(none) %0, ptr noundef %1, ptr noundef readonly captures(none) %2) local_unnamed_addr #0 {
  %4 = alloca i32, align 4
  call void @llvm.lifetime.start.p0(i64 4, ptr nonnull %4) #8
  %5 = getelementptr inbounds nuw i8, ptr %1, i64 184
  %6 = load i32, ptr %5, align 8, !tbaa !101
  %7 = getelementptr inbounds nuw i8, ptr %0, i64 20
  %8 = load i32, ptr %7, align 4, !tbaa !106
  %.not = icmp eq i32 %6, %8
  br i1 %.not, label %13, label %9

9:                                                ; preds = %3
  %10 = getelementptr inbounds nuw i8, ptr %1, i64 56
  %11 = load ptr, ptr %10, align 8, !tbaa !24
  %12 = tail call i32 %11(ptr noundef nonnull %1, i32 noundef 25) #8
  br label %59

13:                                               ; preds = %3
  store i32 -1, ptr %4, align 4, !tbaa !48
  %14 = getelementptr inbounds nuw i8, ptr %2, i64 4
  %15 = load i32, ptr %14, align 4, !tbaa !44
  switch i32 %15, label %16 [
    i32 1, label %28
    i32 3, label %28
  ]

16:                                               ; preds = %13
  %17 = getelementptr inbounds nuw i8, ptr %2, i64 240
  %18 = load i16, ptr %17, align 8, !tbaa !47
  %19 = getelementptr inbounds nuw i8, ptr %0, i64 40
  %20 = load i32, ptr %19, align 8, !tbaa !109
  %21 = getelementptr inbounds nuw i8, ptr %2, i64 148
  %22 = load i32, ptr %21, align 4, !tbaa !46
  %23 = sub nsw i32 %20, %22
  %24 = icmp sgt i16 %18, 1
  br i1 %24, label %25, label %.thread

25:                                               ; preds = %16
  %26 = zext nneg i16 %18 to i32
  %27 = sdiv i32 %23, %26
  br label %.thread

28:                                               ; preds = %13, %13
  %29 = getelementptr inbounds nuw i8, ptr %0, i64 36
  %30 = load i32, ptr %29, align 4, !tbaa !110
  %31 = getelementptr inbounds nuw i8, ptr %0, i64 40
  %32 = load i32, ptr %31, align 8, !tbaa !109
  %33 = getelementptr inbounds nuw i8, ptr %0, i64 52
  %34 = load i8, ptr %33, align 4, !tbaa !111
  %35 = zext i8 %34 to i32
  %36 = getelementptr inbounds nuw i8, ptr %0, i64 53
  %37 = load i8, ptr %36, align 1, !tbaa !112
  %38 = zext i8 %37 to i32
  %39 = call fastcc i32 @validate_and_compute_tile_chunk_off(ptr noundef nonnull %1, ptr noundef nonnull %2, i32 noundef %30, i32 noundef %32, i32 noundef %35, i32 noundef %38, ptr noundef %4)
  %40 = icmp eq i32 %39, 0
  br i1 %40, label %.threadthread-pre-split, label %59

.threadthread-pre-split:                          ; preds = %28
  %.pr = load i32, ptr %4, align 4, !tbaa !48
  br label %.thread

.thread:                                          ; preds = %.threadthread-pre-split, %16, %25
  %41 = phi i32 [ %.pr, %.threadthread-pre-split ], [ %23, %16 ], [ %27, %25 ]
  %42 = icmp sgt i32 %41, -1
  %.phi.trans.insert = getelementptr inbounds nuw i8, ptr %2, i64 244
  %.pre = load i32, ptr %.phi.trans.insert, align 4, !tbaa !29
  %.not34 = icmp slt i32 %41, %.pre
  %or.cond = select i1 %42, i1 %.not34, i1 false
  br i1 %or.cond, label %48, label %.thread._crit_edge

.thread._crit_edge:                               ; preds = %.thread
  %43 = getelementptr inbounds nuw i8, ptr %1, i64 72
  %44 = load ptr, ptr %43, align 8, !tbaa !23
  %45 = getelementptr inbounds nuw i8, ptr %0, i64 40
  %46 = load i32, ptr %45, align 8, !tbaa !109
  %47 = tail call i32 (ptr, i32, ptr, ...) %44(ptr noundef nonnull %1, i32 noundef 3, ptr noundef nonnull @.str.36, i32 noundef %46, i32 noundef %41, i32 noundef %.pre) #8
  br label %59

48:                                               ; preds = %.thread
  %49 = getelementptr inbounds nuw i8, ptr %2, i64 180
  %50 = load i32, ptr %49, align 4, !tbaa !43
  %.not35 = icmp eq i32 %50, 2
  br i1 %.not35, label %59, label %51

51:                                               ; preds = %48
  %52 = getelementptr inbounds nuw i8, ptr %1, i64 188
  %53 = load i32, ptr %52, align 4, !tbaa !102
  %54 = add nsw i32 %41, -1
  %.not36 = icmp eq i32 %53, %54
  br i1 %.not36, label %59, label %55

55:                                               ; preds = %51
  %56 = getelementptr inbounds nuw i8, ptr %1, i64 72
  %57 = load ptr, ptr %56, align 8, !tbaa !23
  %58 = tail call i32 (ptr, i32, ptr, ...) %57(ptr noundef nonnull %1, i32 noundef 26, ptr noundef nonnull @.str.37, i32 noundef %41, i32 noundef %53) #8
  br label %59

59:                                               ; preds = %28, %48, %51, %55, %.thread._crit_edge, %9
  %.0 = phi i32 [ %12, %9 ], [ %47, %.thread._crit_edge ], [ %58, %55 ], [ 0, %51 ], [ 0, %48 ], [ %39, %28 ]
  call void @llvm.lifetime.end.p0(i64 4, ptr nonnull %4) #8
  ret i32 %.0
}